; Function Attrs: nounwind uwtable
define hidden void @_mi_prim_thread_associate_default_heap(ptr noundef %0) local_unnamed_addr #0 {
  %2 = load i32, ptr @_mi_heap_default_key, align 4, !tbaa !15
  %.not = icmp eq i32 %2, -1
  br i1 %.not, label %5, label %3

3:                                                ; preds = %1
  %4 = tail call i32 @pthread_setspecific(i32 noundef %2, ptr noundef %0) #10
  br label %5

5:                                                ; preds = %3, %1
  ret void
}